target datalayout = "e-m:e-p270:32:32-p271:32:32-p272:64:64-i64:64-i128:128-f80:128-n8:16:32:64-S128"
target triple = "x86_64-pc-linux-gnu"

%struct.GDBUserState = type { i32, ptr, i32, i8, [16 x i64], i8, i32, [2 x i32], i32, i32, [128 x i8], i64 }
%struct.GDBState = type { i8, ptr, ptr, ptr, i32, [4096 x i8], i32, i32, i32, ptr, i32, i8, ptr, i32, ptr, ptr, i32, i32, i8 }

@gdbserver_user_state = internal global %struct.GDBUserState zeroinitializer, align 8
@gdbserver_state = external global %struct.GDBState, align 8
@.str.17 = private unnamed_addr constant [13 x i8] c"fork-events+\00", align 1
@.str.18 = private unnamed_addr constant [14 x i8] c";fork-events+\00", align 1

; Function Attrs: nounwind sspstrong uwtable
define dso_local void @gdb_handle_query_supported_user(ptr noundef %0) #0 {
  %2 = alloca ptr, align 8
  store ptr %0, ptr %2, align 8
  %3 = load ptr, ptr %2, align 8
  %4 = call ptr @strstr(ptr noundef %3, ptr noundef @.str.17) #18
  %5 = icmp ne ptr %4, null
  br i1 %5, label %6, label %7

6:                                                ; preds = %1
  store i8 1, ptr getelementptr inbounds nuw (%struct.GDBUserState, ptr @gdbserver_user_state, i32 0, i32 5), align 8
  br label %7

7:                                                ; preds = %6, %1
  %8 = load ptr, ptr getelementptr inbounds nuw (%struct.GDBState, ptr @gdbserver_state, i32 0, i32 14), align 8
  %9 = call ptr @g_string_append(ptr noundef %8, ptr noundef @.str.18)
  ret void
}