; Function Attrs: nounwind sspstrong uwtable
define dso_local void @gdb_handle_query_supported_user(ptr noundef readonly %0) local_unnamed_addr #0 {
  %2 = tail call ptr @strstr(ptr noundef nonnull dereferenceable(1) %0, ptr noundef nonnull dereferenceable(1) @.str.17) #19
  %.not = icmp eq ptr %2, null
  br i1 %.not, label %4, label %3

3:                                                ; preds = %1
  store i8 1, ptr getelementptr inbounds nuw (i8, ptr @gdbserver_user_state, i64 152), align 8
  br label %4

4:                                                ; preds = %3, %1
  %5 = load ptr, ptr getelementptr inbounds nuw (i8, ptr @gdbserver_state, i64 4176), align 8
  %6 = tail call ptr @g_string_append(ptr noundef %5, ptr noundef nonnull @.str.18) #16
  ret void
}